target datalayout = "e-m:e-p270:32:32-p271:32:32-p272:64:64-i64:64-i128:128-f80:128-n8:16:32:64-S128"
target triple = "x86_64-pc-linux-gnu"

%struct.Min_Cube_t_ = type { ptr, i32, [1 x i32] }
%struct.Abc_Obj_t_ = type { ptr, ptr, i32, i32, %struct.Vec_Int_t_, %struct.Vec_Int_t_, %union.anon, %union.anon.0 }
%struct.Vec_Int_t_ = type { i32, i32, ptr }
%union.anon = type { ptr }
%union.anon.0 = type { ptr }
%struct.Abc_Ntk_t_ = type { i32, i32, ptr, ptr, ptr, ptr, ptr, ptr, ptr, ptr, ptr, ptr, ptr, [11 x i32], i32, i32, i32, i32, ptr, i32, ptr, ptr, i32, i32, i32, double, i32, %struct.Vec_Int_t_, ptr, ptr, ptr, ptr, ptr, float, i32, ptr, ptr, ptr, ptr, ptr, ptr, ptr, ptr, ptr, ptr, ptr, ptr, ptr, ptr, ptr, ptr, ptr, ptr, ptr, ptr, ptr, ptr }
%struct.Vec_Ptr_t_ = type { i32, i32, ptr }

; Function Attrs: inlinehint nounwind uwtable
define internal ptr @Vec_PtrEntry(ptr noundef %0, i32 noundef %1) #3 {
  %3 = alloca ptr, align 8
  %4 = alloca i32, align 4
  store ptr %0, ptr %3, align 8, !tbaa !72
  store i32 %1, ptr %4, align 4, !tbaa !14
  %5 = load ptr, ptr %3, align 8, !tbaa !72
  %6 = getelementptr inbounds nuw %struct.Vec_Ptr_t_, ptr %5, i32 0, i32 2
  %7 = load ptr, ptr %6, align 8, !tbaa !53
  %8 = load i32, ptr %4, align 4, !tbaa !14
  %9 = sext i32 %8 to i64
  %10 = getelementptr inbounds ptr, ptr %7, i64 %9
  %11 = load ptr, ptr %10, align 8, !tbaa !56
  ret ptr %11
}

; Function Attrs: inlinehint nounwind uwtable
define internal void @Vec_IntWriteEntry(ptr noundef %0, i32 noundef %1, i32 noundef %2) #3 {
  %4 = alloca ptr, align 8
  %5 = alloca i32, align 4
  %6 = alloca i32, align 4
  store ptr %0, ptr %4, align 8, !tbaa !12
  store i32 %1, ptr %5, align 4, !tbaa !14
  store i32 %2, ptr %6, align 4, !tbaa !14
  %7 = load i32, ptr %6, align 4, !tbaa !14
  %8 = load ptr, ptr %4, align 8, !tbaa !12
  %9 = getelementptr inbounds nuw %struct.Vec_Int_t_, ptr %8, i32 0, i32 2
  %10 = load ptr, ptr %9, align 8, !tbaa !37
  %11 = load i32, ptr %5, align 4, !tbaa !14
  %12 = sext i32 %11 to i64
  %13 = getelementptr inbounds i32, ptr %10, i64 %12
  store i32 %7, ptr %13, align 4, !tbaa !14
  ret void
}

; Function Attrs: inlinehint nounwind uwtable
define internal ptr @Abc_NtkCreateNode(ptr noundef %0) #3 {
  %2 = alloca ptr, align 8
  store ptr %0, ptr %2, align 8, !tbaa !3
  %3 = load ptr, ptr %2, align 8, !tbaa !3
  %4 = call ptr @Abc_NtkCreateObj(ptr noundef %3, i32 noundef 7)
  ret ptr %4
}

; Function Attrs: nounwind uwtable
define ptr @Abc_NtkCovDeriveInv(ptr noundef %0, ptr noundef %1, i32 noundef %2) #0 {
  %4 = alloca ptr, align 8
  %5 = alloca ptr, align 8
  %6 = alloca ptr, align 8
  %7 = alloca i32, align 4
  store ptr %0, ptr %5, align 8, !tbaa !3
  store ptr %1, ptr %6, align 8, !tbaa !8
  store i32 %2, ptr %7, align 4, !tbaa !14
  %8 = load i32, ptr %7, align 4, !tbaa !14
  %9 = icmp ne i32 %8, 0
  br i1 %9, label %14, label %10

10:                                               ; preds = %3
  %11 = load ptr, ptr %6, align 8, !tbaa !8
  %12 = getelementptr inbounds nuw %struct.Abc_Obj_t_, ptr %11, i32 0, i32 7
  %13 = load ptr, ptr %12, align 8, !tbaa !20
  store ptr %13, ptr %4, align 8
  br label %37

14:                                               ; preds = %3
  %15 = load ptr, ptr %6, align 8, !tbaa !8
  %16 = getelementptr inbounds nuw %struct.Abc_Obj_t_, ptr %15, i32 0, i32 7
  %17 = load ptr, ptr %16, align 8, !tbaa !20
  %18 = getelementptr inbounds nuw %struct.Abc_Obj_t_, ptr %17, i32 0, i32 7
  %19 = load ptr, ptr %18, align 8, !tbaa !20
  %20 = icmp eq ptr %19, null
  br i1 %20, label %21, label %31

21:                                               ; preds = %14
  %22 = load ptr, ptr %5, align 8, !tbaa !3
  %23 = load ptr, ptr %6, align 8, !tbaa !8
  %24 = getelementptr inbounds nuw %struct.Abc_Obj_t_, ptr %23, i32 0, i32 7
  %25 = load ptr, ptr %24, align 8, !tbaa !20
  %26 = call ptr @Abc_NtkCreateNodeInv(ptr noundef %22, ptr noundef %25)
  %27 = load ptr, ptr %6, align 8, !tbaa !8
  %28 = getelementptr inbounds nuw %struct.Abc_Obj_t_, ptr %27, i32 0, i32 7
  %29 = load ptr, ptr %28, align 8, !tbaa !20
  %30 = getelementptr inbounds nuw %struct.Abc_Obj_t_, ptr %29, i32 0, i32 7
  store ptr %26, ptr %30, align 8, !tbaa !20
  br label %31

31:                                               ; preds = %21, %14
  %32 = load ptr, ptr %6, align 8, !tbaa !8
  %33 = getelementptr inbounds nuw %struct.Abc_Obj_t_, ptr %32, i32 0, i32 7
  %34 = load ptr, ptr %33, align 8, !tbaa !20
  %35 = getelementptr inbounds nuw %struct.Abc_Obj_t_, ptr %34, i32 0, i32 7
  %36 = load ptr, ptr %35, align 8, !tbaa !20
  store ptr %36, ptr %4, align 8
  br label %37

37:                                               ; preds = %31, %10
  %38 = load ptr, ptr %4, align 8
  ret ptr %38
}

; Function Attrs: inlinehint nounwind uwtable
define internal void @Vec_IntFree(ptr noundef %0) #3 {
  %2 = alloca ptr, align 8
  store ptr %0, ptr %2, align 8, !tbaa !12
  %3 = load ptr, ptr %2, align 8, !tbaa !12
  %4 = getelementptr inbounds nuw %struct.Vec_Int_t_, ptr %3, i32 0, i32 2
  %5 = load ptr, ptr %4, align 8, !tbaa !37
  %6 = icmp ne ptr %5, null
  br i1 %6, label %7, label %13

7:                                                ; preds = %1
  %8 = load ptr, ptr %2, align 8, !tbaa !12
  %9 = getelementptr inbounds nuw %struct.Vec_Int_t_, ptr %8, i32 0, i32 2
  %10 = load ptr, ptr %9, align 8, !tbaa !37
  call void @free(ptr noundef %10) #7
  %11 = load ptr, ptr %2, align 8, !tbaa !12
  %12 = getelementptr inbounds nuw %struct.Vec_Int_t_, ptr %11, i32 0, i32 2
  store ptr null, ptr %12, align 8, !tbaa !37
  br label %14

13:                                               ; preds = %1
  br label %14

14:                                               ; preds = %13, %7
  %15 = load ptr, ptr %2, align 8, !tbaa !12
  %16 = icmp ne ptr %15, null
  br i1 %16, label %17, label %19

17:                                               ; preds = %14
  %18 = load ptr, ptr %2, align 8, !tbaa !12
  call void @free(ptr noundef %18) #7
  store ptr null, ptr %2, align 8, !tbaa !12
  br label %20

19:                                               ; preds = %14
  br label %20

20:                                               ; preds = %19, %17
  ret void
}

; Function Attrs: inlinehint nounwind uwtable
define internal i32 @Min_CubeGetVar(ptr noundef %0, i32 noundef %1) #3 {
  %3 = alloca ptr, align 8
  %4 = alloca i32, align 4
  store ptr %0, ptr %3, align 8, !tbaa !10
  store i32 %1, ptr %4, align 4, !tbaa !14
  %5 = load ptr, ptr %3, align 8, !tbaa !10
  %6 = getelementptr inbounds nuw %struct.Min_Cube_t_, ptr %5, i32 0, i32 2
  %7 = load i32, ptr %4, align 4, !tbaa !14
  %8 = mul nsw i32 2, %7
  %9 = ashr i32 %8, 5
  %10 = sext i32 %9 to i64
  %11 = getelementptr inbounds [1 x i32], ptr %6, i64 0, i64 %10
  %12 = load i32, ptr %11, align 4, !tbaa !14
  %13 = load i32, ptr %4, align 4, !tbaa !14
  %14 = mul nsw i32 2, %13
  %15 = and i32 %14, 31
  %16 = lshr i32 %12, %15
  %17 = and i32 3, %16
  ret i32 %17
}

; Function Attrs: inlinehint nounwind uwtable
define internal ptr @Abc_NtkObj(ptr noundef %0, i32 noundef %1) #3 {
  %3 = alloca ptr, align 8
  %4 = alloca i32, align 4
  store ptr %0, ptr %3, align 8, !tbaa !3
  store i32 %1, ptr %4, align 4, !tbaa !14
  %5 = load ptr, ptr %3, align 8, !tbaa !3
  %6 = getelementptr inbounds nuw %struct.Abc_Ntk_t_, ptr %5, i32 0, i32 5
  %7 = load ptr, ptr %6, align 8, !tbaa !41
  %8 = load i32, ptr %4, align 4, !tbaa !14
  %9 = call ptr @Vec_PtrEntry(ptr noundef %7, i32 noundef %8)
  ret ptr %9
}

; Function Attrs: inlinehint nounwind uwtable
define internal i32 @Vec_IntEntry(ptr noundef %0, i32 noundef %1) #3 {
  %3 = alloca ptr, align 8
  %4 = alloca i32, align 4
  store ptr %0, ptr %3, align 8, !tbaa !12
  store i32 %1, ptr %4, align 4, !tbaa !14
  %5 = load ptr, ptr %3, align 8, !tbaa !12
  %6 = getelementptr inbounds nuw %struct.Vec_Int_t_, ptr %5, i32 0, i32 2
  %7 = load ptr, ptr %6, align 8, !tbaa !37
  %8 = load i32, ptr %4, align 4, !tbaa !14
  %9 = sext i32 %8 to i64
  %10 = getelementptr inbounds i32, ptr %7, i64 %9
  %11 = load i32, ptr %10, align 4, !tbaa !14
  ret i32 %11
}

; Function Attrs: inlinehint nounwind uwtable
define internal ptr @Vec_IntAlloc(i32 noundef %0) #3 {
  %2 = alloca i32, align 4
  %3 = alloca ptr, align 8
  store i32 %0, ptr %2, align 4, !tbaa !14
  call void @llvm.lifetime.start.p0(i64 8, ptr %3) #7
  %4 = call noalias ptr @malloc(i64 noundef 16) #8
  store ptr %4, ptr %3, align 8, !tbaa !12
  %5 = load i32, ptr %2, align 4, !tbaa !14
  %6 = icmp sgt i32 %5, 0
  br i1 %6, label %7, label %11

7:                                                ; preds = %1
  %8 = load i32, ptr %2, align 4, !tbaa !14
  %9 = icmp slt i32 %8, 16
  br i1 %9, label %10, label %11

10:                                               ; preds = %7
  store i32 16, ptr %2, align 4, !tbaa !14
  br label %11

11:                                               ; preds = %10, %7, %1
  %12 = load ptr, ptr %3, align 8, !tbaa !12
  %13 = getelementptr inbounds nuw %struct.Vec_Int_t_, ptr %12, i32 0, i32 1
  store i32 0, ptr %13, align 4, !tbaa !21
  %14 = load i32, ptr %2, align 4, !tbaa !14
  %15 = load ptr, ptr %3, align 8, !tbaa !12
  %16 = getelementptr inbounds nuw %struct.Vec_Int_t_, ptr %15, i32 0, i32 0
  store i32 %14, ptr %16, align 8, !tbaa !38
  %17 = load ptr, ptr %3, align 8, !tbaa !12
  %18 = getelementptr inbounds nuw %struct.Vec_Int_t_, ptr %17, i32 0, i32 0
  %19 = load i32, ptr %18, align 8, !tbaa !38
  %20 = icmp ne i32 %19, 0
  br i1 %20, label %21, label %28

21:                                               ; preds = %11
  %22 = load ptr, ptr %3, align 8, !tbaa !12
  %23 = getelementptr inbounds nuw %struct.Vec_Int_t_, ptr %22, i32 0, i32 0
  %24 = load i32, ptr %23, align 8, !tbaa !38
  %25 = sext i32 %24 to i64
  %26 = mul i64 4, %25
  %27 = call noalias ptr @malloc(i64 noundef %26) #8
  br label %29

28:                                               ; preds = %11
  br label %29

29:                                               ; preds = %28, %21
  %30 = phi ptr [ %27, %21 ], [ null, %28 ]
  %31 = load ptr, ptr %3, align 8, !tbaa !12
  %32 = getelementptr inbounds nuw %struct.Vec_Int_t_, ptr %31, i32 0, i32 2
  store ptr %30, ptr %32, align 8, !tbaa !37
  %33 = load ptr, ptr %3, align 8, !tbaa !12
  call void @llvm.lifetime.end.p0(i64 8, ptr %3) #7
  ret ptr %33
}

; Function Attrs: nounwind uwtable
define ptr @Abc_NtkCovDeriveCubeInv(ptr noundef %0, ptr noundef %1, ptr noundef %2, ptr noundef %3) #0 {
  %5 = alloca ptr, align 8
  %6 = alloca ptr, align 8
  %7 = alloca ptr, align 8
  %8 = alloca ptr, align 8
  %9 = alloca ptr, align 8
  %10 = alloca ptr, align 8
  %11 = alloca ptr, align 8
  %12 = alloca ptr, align 8
  %13 = alloca i32, align 4
  %14 = alloca i32, align 4
  %15 = alloca i32, align 4
  %16 = alloca i32, align 4
  store ptr %0, ptr %6, align 8, !tbaa !3
  store ptr %1, ptr %7, align 8, !tbaa !8
  store ptr %2, ptr %8, align 8, !tbaa !10
  store ptr %3, ptr %9, align 8, !tbaa !12
  call void @llvm.lifetime.start.p0(i64 8, ptr %10) #7
  call void @llvm.lifetime.start.p0(i64 8, ptr %11) #7
  call void @llvm.lifetime.start.p0(i64 8, ptr %12) #7
  call void @llvm.lifetime.start.p0(i64 4, ptr %13) #7
  call void @llvm.lifetime.start.p0(i64 4, ptr %14) #7
  call void @llvm.lifetime.start.p0(i64 4, ptr %15) #7
  %17 = load ptr, ptr %8, align 8, !tbaa !10
  %18 = getelementptr inbounds nuw %struct.Min_Cube_t_, ptr %17, i32 0, i32 1
  %19 = load i32, ptr %18, align 8
  %20 = lshr i32 %19, 22
  %21 = icmp eq i32 %20, 0
  br i1 %21, label %22, label %25

22:                                               ; preds = %4
  %23 = load ptr, ptr %6, align 8, !tbaa !3
  %24 = call ptr @Abc_NtkCreateNodeConst1(ptr noundef %23)
  store ptr %24, ptr %5, align 8
  store i32 1, ptr %16, align 4
  br label %104

25:                                               ; preds = %4
  %26 = call ptr @Vec_IntAlloc(i32 noundef 10)
  store ptr %26, ptr %10, align 8, !tbaa !12
  %27 = load ptr, ptr %8, align 8, !tbaa !10
  %28 = load ptr, ptr %10, align 8, !tbaa !12
  call void @Min_CubeGetLits(ptr noundef %27, ptr noundef %28)
  %29 = load ptr, ptr %8, align 8, !tbaa !10
  %30 = getelementptr inbounds nuw %struct.Min_Cube_t_, ptr %29, i32 0, i32 1
  %31 = load i32, ptr %30, align 8
  %32 = lshr i32 %31, 22
  %33 = icmp eq i32 %32, 1
  br i1 %33, label %34, label %54

34:                                               ; preds = %25
  %35 = load ptr, ptr %10, align 8, !tbaa !12
  %36 = call i32 @Vec_IntEntry(ptr noundef %35, i32 noundef 0)
  store i32 %36, ptr %14, align 4, !tbaa !14
  %37 = load ptr, ptr %7, align 8, !tbaa !8
  %38 = getelementptr inbounds nuw %struct.Abc_Obj_t_, ptr %37, i32 0, i32 0
  %39 = load ptr, ptr %38, align 8, !tbaa !16
  %40 = load ptr, ptr %9, align 8, !tbaa !12
  %41 = load i32, ptr %14, align 4, !tbaa !14
  %42 = call i32 @Vec_IntEntry(ptr noundef %40, i32 noundef %41)
  %43 = call ptr @Abc_NtkObj(ptr noundef %39, i32 noundef %42)
  store ptr %43, ptr %12, align 8, !tbaa !8
  %44 = load ptr, ptr %8, align 8, !tbaa !10
  %45 = load i32, ptr %14, align 4, !tbaa !14
  %46 = call i32 @Min_CubeGetVar(ptr noundef %44, i32 noundef %45)
  store i32 %46, ptr %15, align 4, !tbaa !14
  %47 = load ptr, ptr %10, align 8, !tbaa !12
  call void @Vec_IntFree(ptr noundef %47)
  %48 = load ptr, ptr %6, align 8, !tbaa !3
  %49 = load ptr, ptr %12, align 8, !tbaa !8
  %50 = load i32, ptr %15, align 4, !tbaa !14
  %51 = icmp eq i32 %50, 1
  %52 = zext i1 %51 to i32
  %53 = call ptr @Abc_NtkCovDeriveInv(ptr noundef %48, ptr noundef %49, i32 noundef %52)
  store ptr %53, ptr %5, align 8
  store i32 1, ptr %16, align 4
  br label %104

54:                                               ; preds = %25
  %55 = load ptr, ptr %6, align 8, !tbaa !3
  %56 = call ptr @Abc_NtkCreateNode(ptr noundef %55)
  store ptr %56, ptr %11, align 8, !tbaa !8
  store i32 0, ptr %13, align 4, !tbaa !14
  br label %57

57:                                               ; preds = %89, %54
  %58 = load i32, ptr %13, align 4, !tbaa !14
  %59 = load ptr, ptr %10, align 8, !tbaa !12
  %60 = getelementptr inbounds nuw %struct.Vec_Int_t_, ptr %59, i32 0, i32 1
  %61 = load i32, ptr %60, align 4, !tbaa !21
  %62 = icmp slt i32 %58, %61
  br i1 %62, label %63, label %92

63:                                               ; preds = %57
  %64 = load ptr, ptr %10, align 8, !tbaa !12
  %65 = load i32, ptr %13, align 4, !tbaa !14
  %66 = call i32 @Vec_IntEntry(ptr noundef %64, i32 noundef %65)
  store i32 %66, ptr %14, align 4, !tbaa !14
  %67 = load ptr, ptr %7, align 8, !tbaa !8
  %68 = getelementptr inbounds nuw %struct.Abc_Obj_t_, ptr %67, i32 0, i32 0
  %69 = load ptr, ptr %68, align 8, !tbaa !16
  %70 = load ptr, ptr %9, align 8, !tbaa !12
  %71 = load i32, ptr %14, align 4, !tbaa !14
  %72 = call i32 @Vec_IntEntry(ptr noundef %70, i32 noundef %71)
  %73 = call ptr @Abc_NtkObj(ptr noundef %69, i32 noundef %72)
  store ptr %73, ptr %12, align 8, !tbaa !8
  %74 = load ptr, ptr %8, align 8, !tbaa !10
  %75 = load i32, ptr %14, align 4, !tbaa !14
  %76 = call i32 @Min_CubeGetVar(ptr noundef %74, i32 noundef %75)
  store i32 %76, ptr %15, align 4, !tbaa !14
  %77 = load ptr, ptr %10, align 8, !tbaa !12
  %78 = load i32, ptr %13, align 4, !tbaa !14
  %79 = load i32, ptr %15, align 4, !tbaa !14
  %80 = icmp eq i32 %79, 1
  %81 = zext i1 %80 to i32
  call void @Vec_IntWriteEntry(ptr noundef %77, i32 noundef %78, i32 noundef %81)
  %82 = load ptr, ptr %11, align 8, !tbaa !8
  %83 = load ptr, ptr %6, align 8, !tbaa !3
  %84 = load ptr, ptr %12, align 8, !tbaa !8
  %85 = load i32, ptr %15, align 4, !tbaa !14
  %86 = icmp eq i32 %85, 1
  %87 = zext i1 %86 to i32
  %88 = call ptr @Abc_NtkCovDeriveInv(ptr noundef %83, ptr noundef %84, i32 noundef %87)
  call void @Abc_ObjAddFanin(ptr noundef %82, ptr noundef %88)
  br label %89

89:                                               ; preds = %63
  %90 = load i32, ptr %13, align 4, !tbaa !14
  %91 = add nsw i32 %90, 1
  store i32 %91, ptr %13, align 4, !tbaa !14
  br label %57, !llvm.loop !57

92:                                               ; preds = %57
  %93 = load ptr, ptr %6, align 8, !tbaa !3
  %94 = getelementptr inbounds nuw %struct.Abc_Ntk_t_, ptr %93, i32 0, i32 30
  %95 = load ptr, ptr %94, align 8, !tbaa !24
  %96 = load ptr, ptr %10, align 8, !tbaa !12
  %97 = getelementptr inbounds nuw %struct.Vec_Int_t_, ptr %96, i32 0, i32 1
  %98 = load i32, ptr %97, align 4, !tbaa !21
  %99 = call ptr @Abc_SopCreateAnd(ptr noundef %95, i32 noundef %98, ptr noundef null)
  %100 = load ptr, ptr %11, align 8, !tbaa !8
  %101 = getelementptr inbounds nuw %struct.Abc_Obj_t_, ptr %100, i32 0, i32 6
  store ptr %99, ptr %101, align 8, !tbaa !20
  %102 = load ptr, ptr %10, align 8, !tbaa !12
  call void @Vec_IntFree(ptr noundef %102)
  %103 = load ptr, ptr %11, align 8, !tbaa !8
  store ptr %103, ptr %5, align 8
  store i32 1, ptr %16, align 4
  br label %104

104:                                              ; preds = %92, %34, %22
  call void @llvm.lifetime.end.p0(i64 4, ptr %15) #7
  call void @llvm.lifetime.end.p0(i64 4, ptr %14) #7
  call void @llvm.lifetime.end.p0(i64 4, ptr %13) #7
  call void @llvm.lifetime.end.p0(i64 8, ptr %12) #7
  call void @llvm.lifetime.end.p0(i64 8, ptr %11) #7
  call void @llvm.lifetime.end.p0(i64 8, ptr %10) #7
  %105 = load ptr, ptr %5, align 8
  ret ptr %105
}