; Function Attrs: nounwind uwtable
define ptr @Abc_NtkCovDeriveCubeInv(ptr noundef %0, ptr noundef readonly captures(none) %1, ptr noundef readonly captures(none) %2, ptr noundef readonly captures(none) %3) local_unnamed_addr #0 {
  %5 = getelementptr inbounds nuw i8, ptr %2, i64 8
  %6 = load i32, ptr %5, align 8
  %7 = icmp ult i32 %6, 4194304
  br i1 %7, label %8, label %10

8:                                                ; preds = %4
  %9 = tail call ptr @Abc_NtkCreateNodeConst1(ptr noundef %0) #7
  br label %91

10:                                               ; preds = %4
  %11 = tail call noalias dereferenceable_or_null(16) ptr @malloc(i64 noundef 16) #8
  %12 = getelementptr inbounds nuw i8, ptr %11, i64 4
  store i32 0, ptr %12, align 4, !tbaa !3
  store i32 16, ptr %11, align 8, !tbaa !10
  %13 = tail call noalias dereferenceable_or_null(64) ptr @malloc(i64 noundef 64) #8
  %14 = getelementptr inbounds nuw i8, ptr %11, i64 8
  store ptr %13, ptr %14, align 8, !tbaa !11
  tail call fastcc void @Min_CubeGetLits(ptr noundef nonnull %2, ptr noundef nonnull %11)
  %15 = load i32, ptr %5, align 8
  %.mask = and i32 %15, -4194304
  %16 = icmp eq i32 %.mask, 4194304
  br i1 %16, label %Vec_IntFree.exit, label %47

Vec_IntFree.exit:                                 ; preds = %10
  %.val42 = load ptr, ptr %14, align 8, !tbaa !11
  %17 = load i32, ptr %.val42, align 4, !tbaa !12
  %18 = load ptr, ptr %1, align 8, !tbaa !13
  %19 = getelementptr i8, ptr %3, i64 8
  %.val41 = load ptr, ptr %19, align 8, !tbaa !11
  %20 = sext i32 %17 to i64
  %21 = getelementptr inbounds i32, ptr %.val41, i64 %20
  %22 = load i32, ptr %21, align 4, !tbaa !12
  %23 = getelementptr i8, ptr %18, i64 32
  %.val44 = load ptr, ptr %23, align 8, !tbaa !17
  %24 = getelementptr i8, ptr %.val44, i64 8
  %.val44.val = load ptr, ptr %24, align 8, !tbaa !31
  %25 = sext i32 %22 to i64
  %26 = getelementptr inbounds ptr, ptr %.val44.val, i64 %25
  %27 = load ptr, ptr %26, align 8, !tbaa !33
  %28 = getelementptr inbounds nuw i8, ptr %2, i64 12
  %29 = shl nsw i32 %17, 1
  %30 = ashr i32 %17, 4
  %31 = sext i32 %30 to i64
  %32 = getelementptr inbounds [1 x i32], ptr %28, i64 0, i64 %31
  %33 = load i32, ptr %32, align 4, !tbaa !12
  %34 = and i32 %29, 30
  %35 = lshr i32 %33, %34
  %36 = and i32 %35, 3
  tail call void @free(ptr noundef nonnull %.val42) #7
  tail call void @free(ptr noundef nonnull %11) #7
  %.not = icmp eq i32 %36, 1
  br i1 %.not, label %37, label %Abc_NtkCovDeriveInv.exit

37:                                               ; preds = %Vec_IntFree.exit
  %38 = getelementptr inbounds nuw i8, ptr %27, i64 64
  %39 = load ptr, ptr %38, align 8, !tbaa !34
  %40 = getelementptr inbounds nuw i8, ptr %39, i64 64
  %41 = load ptr, ptr %40, align 8, !tbaa !34
  %42 = icmp eq ptr %41, null
  br i1 %42, label %43, label %Abc_NtkCovDeriveInv.exit

43:                                               ; preds = %37
  %44 = tail call ptr @Abc_NtkCreateNodeInv(ptr noundef %0, ptr noundef nonnull %39) #7
  %45 = load ptr, ptr %38, align 8, !tbaa !34
  %46 = getelementptr inbounds nuw i8, ptr %45, i64 64
  store ptr %44, ptr %46, align 8, !tbaa !34
  %.pre.i = load ptr, ptr %38, align 8, !tbaa !34
  br label %Abc_NtkCovDeriveInv.exit

Abc_NtkCovDeriveInv.exit:                         ; preds = %Vec_IntFree.exit, %37, %43
  %.pn.i = phi ptr [ %27, %Vec_IntFree.exit ], [ %.pre.i, %43 ], [ %39, %37 ]
  %.0.in.i = getelementptr inbounds nuw i8, ptr %.pn.i, i64 64
  %.0.i = load ptr, ptr %.0.in.i, align 8, !tbaa !34
  br label %91

47:                                               ; preds = %10
  %48 = tail call ptr @Abc_NtkCreateObj(ptr noundef %0, i32 noundef 7) #7
  %49 = load i32, ptr %12, align 4, !tbaa !3
  %50 = icmp sgt i32 %49, 0
  br i1 %50, label %.lr.ph, label %._crit_edge

.lr.ph:                                           ; preds = %47
  %.val40 = load ptr, ptr %14, align 8, !tbaa !11
  %51 = getelementptr i8, ptr %3, i64 8
  %52 = getelementptr inbounds nuw i8, ptr %2, i64 12
  %wide.trip.count = zext nneg i32 %49 to i64
  br label %53

53:                                               ; preds = %.lr.ph, %Abc_NtkCovDeriveInv.exit52
  %indvars.iv = phi i64 [ 0, %.lr.ph ], [ %indvars.iv.next, %Abc_NtkCovDeriveInv.exit52 ]
  %54 = getelementptr inbounds nuw i32, ptr %.val40, i64 %indvars.iv
  %55 = load i32, ptr %54, align 4, !tbaa !12
  %56 = load ptr, ptr %1, align 8, !tbaa !13
  %.val = load ptr, ptr %51, align 8, !tbaa !11
  %57 = sext i32 %55 to i64
  %58 = getelementptr inbounds i32, ptr %.val, i64 %57
  %59 = load i32, ptr %58, align 4, !tbaa !12
  %60 = getelementptr i8, ptr %56, i64 32
  %.val43 = load ptr, ptr %60, align 8, !tbaa !17
  %61 = getelementptr i8, ptr %.val43, i64 8
  %.val43.val = load ptr, ptr %61, align 8, !tbaa !31
  %62 = sext i32 %59 to i64
  %63 = getelementptr inbounds ptr, ptr %.val43.val, i64 %62
  %64 = load ptr, ptr %63, align 8, !tbaa !33
  %65 = shl nsw i32 %55, 1
  %66 = ashr i32 %55, 4
  %67 = sext i32 %66 to i64
  %68 = getelementptr inbounds [1 x i32], ptr %52, i64 0, i64 %67
  %69 = load i32, ptr %68, align 4, !tbaa !12
  %70 = and i32 %65, 30
  %71 = lshr i32 %69, %70
  %72 = and i32 %71, 3
  %73 = icmp eq i32 %72, 1
  %74 = zext i1 %73 to i32
  store i32 %74, ptr %54, align 4, !tbaa !12
  br i1 %73, label %75, label %Abc_NtkCovDeriveInv.exit52

75:                                               ; preds = %53
  %76 = getelementptr inbounds nuw i8, ptr %64, i64 64
  %77 = load ptr, ptr %76, align 8, !tbaa !34
  %78 = getelementptr inbounds nuw i8, ptr %77, i64 64
  %79 = load ptr, ptr %78, align 8, !tbaa !34
  %80 = icmp eq ptr %79, null
  br i1 %80, label %81, label %Abc_NtkCovDeriveInv.exit52

81:                                               ; preds = %75
  %82 = tail call ptr @Abc_NtkCreateNodeInv(ptr noundef %0, ptr noundef nonnull %77) #7
  %83 = load ptr, ptr %76, align 8, !tbaa !34
  %84 = getelementptr inbounds nuw i8, ptr %83, i64 64
  store ptr %82, ptr %84, align 8, !tbaa !34
  %.pre.i51 = load ptr, ptr %76, align 8, !tbaa !34
  br label %Abc_NtkCovDeriveInv.exit52

Abc_NtkCovDeriveInv.exit52:                       ; preds = %53, %75, %81
  %.pn.i48 = phi ptr [ %64, %53 ], [ %.pre.i51, %81 ], [ %77, %75 ]
  %.0.in.i49 = getelementptr inbounds nuw i8, ptr %.pn.i48, i64 64
  %.0.i50 = load ptr, ptr %.0.in.i49, align 8, !tbaa !34
  tail call void @Abc_ObjAddFanin(ptr noundef %48, ptr noundef %.0.i50) #7
  %indvars.iv.next = add nuw nsw i64 %indvars.iv, 1
  %exitcond.not = icmp eq i64 %indvars.iv.next, %wide.trip.count
  br i1 %exitcond.not, label %._crit_edge, label %53, !llvm.loop !58

._crit_edge:                                      ; preds = %Abc_NtkCovDeriveInv.exit52, %47
  %85 = getelementptr inbounds nuw i8, ptr %0, i64 256
  %86 = load ptr, ptr %85, align 8, !tbaa !37
  %87 = tail call ptr @Abc_SopCreateAnd(ptr noundef %86, i32 noundef %49, ptr noundef null) #7
  %88 = getelementptr inbounds nuw i8, ptr %48, i64 56
  store ptr %87, ptr %88, align 8, !tbaa !34
  %89 = load ptr, ptr %14, align 8, !tbaa !11
  %.not.i53 = icmp eq ptr %89, null
  br i1 %.not.i53, label %Vec_IntFree.exit54, label %90

90:                                               ; preds = %._crit_edge
  tail call void @free(ptr noundef nonnull %89) #7
  br label %Vec_IntFree.exit54

Vec_IntFree.exit54:                               ; preds = %._crit_edge, %90
  tail call void @free(ptr noundef nonnull %11) #7
  br label %91

91:                                               ; preds = %Vec_IntFree.exit54, %Abc_NtkCovDeriveInv.exit, %8
  %.038 = phi ptr [ %9, %8 ], [ %.0.i, %Abc_NtkCovDeriveInv.exit ], [ %48, %Vec_IntFree.exit54 ]
  ret ptr %.038
}